ccopy_reg
_reconstructor
p1
(cargparse
Namespace
p2
c__builtin__
object
p3
NtRp4
(dp5
S'num_epochs'
p6
I50
sS'grad_clip'
p7
F5
sS'rnn_size'
p8
I1024
sS'data_dir'
p9
S'preprocessed_data'
p10
sS'decay_steps'
p11
I100000
sS'learning_rate'
p12
F6.0000000000000002e-05
sS'save_dir'
p13
S'models/combined_model'
p14
sS'batch_size'
p15
I32
sS'vocab_size'
p16
I96
sS'decay_rate'
p17
F0.94999999999999996
sS'seq_length'
p18
I50
sS'num_layers'
p19
I3
sS'model'
p20
S'lstm'
p21
sS'save_every'
p22
I1000
sb.